(lp0
(F80.0
F37.4
tp1
a(F91.7
F33.0
tp2
a(F82.4
F32.2
tp3
a(F85.8
F25.0
tp4
a(F57.8
F16.8
tp5
a(F74.5
F9.9
tp6
a(F6.1
F47.7
tp7
a(F29.8
F21.7
tp8
a(F66.1
F5.6
tp9
a(F70.1
F26.7
tp10
a(F84.8
F35.6
tp11
a(F5.3
F47.6
tp12
a(F20.2
F16.5
tp13
a(F6.4
F47.4
tp14
a(F75.6
F30.5
tp15
a(F68.0
F29.5
tp16
a(F93.1
F32.3
tp17
a(F70.0
F25.3
tp18
a(F86.5
F37.6
tp19
a(F68.8
F5.7
tp20
a(F85.4
F40.7
tp21
a(F62.6
F10.3
tp22
a(F18.2
F10.1
tp23
a(F72.6
F24.5
tp24
a(F79.8
F31.4
tp25
a(F64.1
F34.6
tp26
a(F22.4
F14.7
tp27
a(F73.9
F25.9
tp28
a(F16.7
F40.2
tp29
a(F80.3
F18.1
tp30
a(F61.1
F37.0
tp31
a(F88.3
F3.2
tp32
a(F19.5
F38.7
tp33
a(F10.1
F8.6
tp34
a(F5.9
F28.7
tp35
a(F12.4
F32.6
tp36
a(F19.5
F34.1
tp37
a(F51.2
F34.0
tp38
a(F29.3
F14.3
tp39
a(F4.5
F34.7
tp40
a(F10.2
F23.1
tp41
a(F13.9
F30.8
tp42
a(F71.5
F38.6
tp43
a(F67.5
F9.0
tp44
a(F33.9
F2.5
tp45
a(F72.4
F28.1
tp46
a(F70.7
F16.6
tp47
a(F22.9
F37.4
tp48
a(F2.3
F18.2
tp49
a(F84.3
F39.0
tp50
a(F33.5
F28.9
tp51
a(F82.8
F33.6
tp52
a(F64.9
F44.4
tp53
a(F8.2
F48.6
tp54
a(F20.9
F41.2
tp55
a(F6.9
F38.8
tp56
a(F56.5
F28.5
tp57
a(F76.5
F19.2
tp58
a(F85.0
F25.9
tp59
a(F54.1
F39.2
tp60
a(F19.7
F4.0
tp61
a(F67.1
F43.4
tp62
a(F39.4
F4.7
tp63
a(F49.4
F25.5
tp64
a(F60.2
F37.3
tp65
a(F73.3
F12.1
tp66
a(F53.2
F20.0
tp67
a(F88.7
F19.0
tp68
a(F84.7
F28.5
tp69
a(F56.8
F31.4
tp70
a(F13.5
F6.5
tp71
a(F85.4
F24.3
tp72
a(F11.2
F31.7
tp73
a(F15.6
F1.4
tp74
a(F81.7
F38.1
tp75
a(F27.5
F47.1
tp76
a(F42.1
F35.0
tp77
a(F85.1
F12.5
tp78
a(F25.6
F7.7
tp79
a(F91.3
F26.3
tp80
a(F72.4
F25.4
tp81
a(F59.5
F27.7
tp82
a(F19.3
F2.5
tp83
a(F73.5
F18.0
tp84
a(F74.4
F29.4
tp85
a(F10.5
F45.4
tp86
a(F21.3
F4.7
tp87
a(F33.1
F6.8
tp88
a(F63.1
F25.1
tp89
a(F87.3
F17.1
tp90
a(F86.5
F34.4
tp91
a(F86.9
F42.9
tp92
a(F11.5
F13.9
tp93
a(F10.2
F39.2
tp94
a(F81.8
F39.5
tp95
a(F86.7
F32.7
tp96
a(F78.3
F15.7
tp97
a(F33.1
F14.9
tp98
a(F81.4
F30.3
tp99
a(F13.7
F28.9
tp100
a(F13.7
F28.9
tp101
a(F-1.4
F32.3
tp102
a(F16.5
F29.0
tp103
a(F11.2
F6.1
tp104
a(F70.8
F18.8
tp105
a(F69.9
F3.8
tp106
a(F30.1
F30.4
tp107
a(F33.6
F11.0
tp108
a(F12.0
F32.3
tp109
a(F80.8
F48.0
tp110
a(F83.0
F19.4
tp111
a(F12.3
F16.8
tp112
a(F83.9
F12.6
tp113
a(F63.6
F3.8
tp114
a(F83.2
F47.2
tp115
a(F85.2
F29.3
tp116
a(F56.6
F15.4
tp117
a(F36.8
F5.0
tp118
a(F66.5
F29.5
tp119
a(F65.1
F7.9
tp120
a(F84.7
F36.1
tp121
a(F78.8
F11.7
tp122
a(F80.1
F13.1
tp123
a(F12.8
F39.6
tp124
a(F22.7
F27.8
tp125
a(F21.1
F14.7
tp126
a(F49.5
F19.1
tp127
a(F8.6
F8.1
tp128
a(F22.6
F24.2
tp129
a(F10.8
F18.1
tp130
a(F28.8
F23.8
tp131
a(F18.1
F48.0
tp132
a(F84.6
F33.2
tp133
a(F75.6
F24.2
tp134
a(F85.4
F29.6
tp135
a(F11.5
F37.0
tp136
a(F82.4
F16.5
tp137
a(F80.0
F33.9
tp138
a(F23.2
F20.0
tp139
a(F23.0
F25.6
tp140
a(F29.5
F17.9
tp141
a(F82.0
F17.7
tp142
a(F66.8
F8.7
tp143
a(F82.4
F25.7
tp144
a(F57.3
F25.1
tp145
a(F82.1
F34.5
tp146
a(F81.1
F21.3
tp147
a(F80.3
F19.4
tp148
a(F87.2
F40.5
tp149
a(F83.2
F13.8
tp150
a(F52.8
F36.1
tp151
a.