(lp0
(F74.6
F17.3
tp1
a(F84.3
F21.4
tp2
a(F64.9
F24.5
tp3
a(F39.0
F31.8
tp4
a(F23.2
F33.9
tp5
a(F55.7
F5.3
tp6
a(F30.3
F26.1
tp7
a(F78.1
F33.2
tp8
a(F-4.9
F21.0
tp9
a(F7.4
F11.4
tp10
a(F2.6
F32.0
tp11
a(F9.3
F29.6
tp12
a(F69.4
F30.4
tp13
a(F29.5
F23.4
tp14
a(F56.1
F46.9
tp15
a(F13.5
F27.3
tp16
a(F26.2
F25.7
tp17
a(F13.9
F10.4
tp18
a(F79.1
F11.6
tp19
a(F40.8
F32.7
tp20
a(F64.8
F27.2
tp21
a(F27.0
F28.1
tp22
a(F20.1
F13.5
tp23
a(F5.6
F47.6
tp24
a(F77.1
F27.3
tp25
a(F28.5
F8.5
tp26
a(F21.5
F36.5
tp27
a(F86.5
F25.2
tp28
a(F28.3
F25.2
tp29
a(F77.2
F38.4
tp30
a(F71.7
F22.2
tp31
a(F70.3
F36.5
tp32
a(F16.4
F22.7
tp33
a(F4.5
F16.4
tp34
a(F23.3
F34.5
tp35
a(F5.1
F27.6
tp36
a(F27.4
F34.4
tp37
a(F8.3
F35.4
tp38
a(F34.8
F14.5
tp39
a(F19.8
F11.4
tp40
a(F45.7
F32.0
tp41
a(F93.6
F36.8
tp42
a(F89.0
F17.8
tp43
a(F86.5
F17.2
tp44
a(F58.1
F15.5
tp45
a(F46.2
F22.9
tp46
a(F73.1
F22.3
tp47
a(F12.0
F34.0
tp48
a(F11.2
F20.9
tp49
a(F86.1
F3.8
tp50
a(F34.4
F11.5
tp51
a(F5.8
F19.3
tp52
a(F86.4
F15.3
tp53
a(F25.7
F40.0
tp54
a(F78.8
F27.4
tp55
a(F26.3
F8.9
tp56
a(F19.1
F15.6
tp57
a(F85.5
F10.1
tp58
a(F86.7
F34.7
tp59
a(F19.5
F29.1
tp60
a(F39.6
F23.4
tp61
a(F2.4
F25.3
tp62
a(F85.6
F14.8
tp63
a(F18.1
F41.6
tp64
a(F30.1
F42.0
tp65
a(F74.7
F10.1
tp66
a(F82.8
F7.9
tp67
a(F27.7
F18.9
tp68
a(F57.7
F15.2
tp69
a(F41.3
F19.4
tp70
a(F18.4
F23.3
tp71
a(F76.8
F12.3
tp72
a(F30.5
F41.7
tp73
a(F86.2
F13.4
tp74
a(F68.3
F44.7
tp75
a(F79.1
F42.7
tp76
a(F25.2
F7.9
tp77
a(F64.1
F34.7
tp78
a(F52.8
F34.4
tp79
a(F6.2
F22.7
tp80
a(F39.4
F5.2
tp81
a(F63.5
F27.2
tp82
a(F17.9
F31.2
tp83
a(F73.1
F16.8
tp84
a(F82.7
F32.7
tp85
a(F15.3
F21.2
tp86
a(F9.6
F37.7
tp87
a(F75.2
F40.2
tp88
a(F83.2
F12.6
tp89
a(F68.8
F25.6
tp90
a(F20.4
F23.3
tp91
a(F80.5
F9.5
tp92
a(F10.2
F39.2
tp93
a(F20.0
F31.3
tp94
a(F28.9
F44.8
tp95
a(F81.3
F31.0
tp96
a(F66.3
F37.5
tp97
a(F87.7
F26.0
tp98
a(F60.4
F25.2
tp99
a(F19.6
F15.8
tp100
a(F24.7
F33.9
tp101
a(F51.0
F33.3
tp102
a(F17.1
F16.1
tp103
a(F6.7
F47.4
tp104
a(F81.8
F47.8
tp105
a(F69.8
F31.8
tp106
a(F10.8
F1.1
tp107
a(F31.9
F23.7
tp108
a(F7.6
F34.1
tp109
a(F83.0
F19.4
tp110
a(F39.1
F24.3
tp111
a(F7.8
F27.5
tp112
a(F92.5
F40.9
tp113
a(F86.2
F16.9
tp114
a(F75.3
F13.3
tp115
a(F85.2
F29.3
tp116
a(F43.1
F30.8
tp117
a(F47.1
F12.7
tp118
a(F66.1
F13.2
tp119
a(F61.7
F30.5
tp120
a(F76.9
F49.0
tp121
a(F58.4
F23.7
tp122
a(F12.6
F19.9
tp123
a(F20.2
F5.1
tp124
a(F69.6
F13.1
tp125
a(F82.2
F33.4
tp126
a(F16.8
F7.9
tp127
a(F21.8
F32.9
tp128
a(F22.7
F38.5
tp129
a(F18.8
F16.7
tp130
a(F7.0
F6.9
tp131
a(F53.0
F10.6
tp132
a(F89.2
F27.8
tp133
a(F73.3
F5.0
tp134
a(F61.4
F30.9
tp135
a(F83.9
F27.1
tp136
a(F69.3
F22.9
tp137
a(F41.2
F30.9
tp138
a(F22.6
F21.0
tp139
a(F11.3
F35.8
tp140
a(F33.8
F20.0
tp141
a(F77.9
F30.9
tp142
a(F82.5
F31.0
tp143
a(F88.7
F19.7
tp144
a(F76.7
F24.4
tp145
a(F88.7
F19.7
tp146
a(F90.6
F23.9
tp147
a(F84.4
F32.5
tp148
a(F63.3
F24.1
tp149
a(F76.3
F9.3
tp150
a(F71.7
F13.8
tp151
a.